target datalayout = "e-m:e-p270:32:32-p271:32:32-p272:64:64-i64:64-i128:128-f80:128-n8:16:32:64-S128"
target triple = "x86_64-pc-linux-gnu"

; Function Attrs: mustprogress nounwind uwtable
define linkonce_odr noundef i32 @_Z5dtMaxIiET_S0_S0_(i32 noundef %0, i32 noundef %1) #1 comdat {
  %3 = alloca i32, align 4
  %4 = alloca i32, align 4
  store i32 %0, ptr %3, align 4
  store i32 %1, ptr %4, align 4
  %5 = load i32, ptr %3, align 4
  %6 = load i32, ptr %4, align 4
  %7 = icmp sgt i32 %5, %6
  br i1 %7, label %8, label %10

8:                                                ; preds = %2
  %9 = load i32, ptr %3, align 4
  br label %12

10:                                               ; preds = %2
  %11 = load i32, ptr %4, align 4
  br label %12

12:                                               ; preds = %10, %8
  %13 = phi i32 [ %9, %8 ], [ %11, %10 ]
  ret i32 %13
}

; Function Attrs: mustprogress uwtable
define noundef i32 @_Z28dtMergeCorridorStartShortcutPjiiPKji(ptr noundef %0, i32 noundef %1, i32 noundef %2, ptr noundef %3, i32 noundef %4) #0 {
  %6 = alloca i32, align 4
  %7 = alloca ptr, align 8
  %8 = alloca i32, align 4
  %9 = alloca i32, align 4
  %10 = alloca ptr, align 8
  %11 = alloca i32, align 4
  %12 = alloca i32, align 4
  %13 = alloca i32, align 4
  %14 = alloca i32, align 4
  %15 = alloca i8, align 1
  %16 = alloca i32, align 4
  %17 = alloca i32, align 4
  %18 = alloca i32, align 4
  %19 = alloca i32, align 4
  %20 = alloca i32, align 4
  store ptr %0, ptr %7, align 8
  store i32 %1, ptr %8, align 4
  store i32 %2, ptr %9, align 4
  store ptr %3, ptr %10, align 8
  store i32 %4, ptr %11, align 4
  store i32 -1, ptr %12, align 4
  store i32 -1, ptr %13, align 4
  %21 = load i32, ptr %8, align 4
  %22 = sub nsw i32 %21, 1
  store i32 %22, ptr %14, align 4
  br label %23

23:                                               ; preds = %56, %5
  %24 = load i32, ptr %14, align 4
  %25 = icmp sge i32 %24, 0
  br i1 %25, label %26, label %59

26:                                               ; preds = %23
  store i8 0, ptr %15, align 1
  %27 = load i32, ptr %11, align 4
  %28 = sub nsw i32 %27, 1
  store i32 %28, ptr %16, align 4
  br label %29

29:                                               ; preds = %48, %26
  %30 = load i32, ptr %16, align 4
  %31 = icmp sge i32 %30, 0
  br i1 %31, label %32, label %51

32:                                               ; preds = %29
  %33 = load ptr, ptr %7, align 8
  %34 = load i32, ptr %14, align 4
  %35 = sext i32 %34 to i64
  %36 = getelementptr inbounds i32, ptr %33, i64 %35
  %37 = load i32, ptr %36, align 4
  %38 = load ptr, ptr %10, align 8
  %39 = load i32, ptr %16, align 4
  %40 = sext i32 %39 to i64
  %41 = getelementptr inbounds i32, ptr %38, i64 %40
  %42 = load i32, ptr %41, align 4
  %43 = icmp eq i32 %37, %42
  br i1 %43, label %44, label %47

44:                                               ; preds = %32
  %45 = load i32, ptr %14, align 4
  store i32 %45, ptr %12, align 4
  %46 = load i32, ptr %16, align 4
  store i32 %46, ptr %13, align 4
  store i8 1, ptr %15, align 1
  br label %47

47:                                               ; preds = %44, %32
  br label %48

48:                                               ; preds = %47
  %49 = load i32, ptr %16, align 4
  %50 = add nsw i32 %49, -1
  store i32 %50, ptr %16, align 4
  br label %29, !llvm.loop !10

51:                                               ; preds = %29
  %52 = load i8, ptr %15, align 1
  %53 = trunc i8 %52 to i1
  br i1 %53, label %54, label %55

54:                                               ; preds = %51
  br label %59

55:                                               ; preds = %51
  br label %56

56:                                               ; preds = %55
  %57 = load i32, ptr %14, align 4
  %58 = add nsw i32 %57, -1
  store i32 %58, ptr %14, align 4
  br label %23, !llvm.loop !11

59:                                               ; preds = %54, %23
  %60 = load i32, ptr %12, align 4
  %61 = icmp eq i32 %60, -1
  br i1 %61, label %65, label %62

62:                                               ; preds = %59
  %63 = load i32, ptr %13, align 4
  %64 = icmp eq i32 %63, -1
  br i1 %64, label %65, label %67

65:                                               ; preds = %62, %59
  %66 = load i32, ptr %8, align 4
  store i32 %66, ptr %6, align 4
  br label %125

67:                                               ; preds = %62
  %68 = load i32, ptr %13, align 4
  store i32 %68, ptr %17, align 4
  %69 = load i32, ptr %17, align 4
  %70 = icmp sle i32 %69, 0
  br i1 %70, label %71, label %73

71:                                               ; preds = %67
  %72 = load i32, ptr %8, align 4
  store i32 %72, ptr %6, align 4
  br label %125

73:                                               ; preds = %67
  %74 = load i32, ptr %12, align 4
  store i32 %74, ptr %18, align 4
  %75 = load i32, ptr %8, align 4
  %76 = load i32, ptr %18, align 4
  %77 = sub nsw i32 %75, %76
  %78 = call noundef i32 @_Z5dtMaxIiET_S0_S0_(i32 noundef 0, i32 noundef %77)
  store i32 %78, ptr %19, align 4
  %79 = load i32, ptr %17, align 4
  %80 = load i32, ptr %19, align 4
  %81 = add nsw i32 %79, %80
  %82 = load i32, ptr %9, align 4
  %83 = icmp sgt i32 %81, %82
  br i1 %83, label %84, label %88

84:                                               ; preds = %73
  %85 = load i32, ptr %9, align 4
  %86 = load i32, ptr %17, align 4
  %87 = sub nsw i32 %85, %86
  store i32 %87, ptr %19, align 4
  br label %88

88:                                               ; preds = %84, %73
  %89 = load i32, ptr %19, align 4
  %90 = icmp ne i32 %89, 0
  br i1 %90, label %91, label %103

91:                                               ; preds = %88
  %92 = load ptr, ptr %7, align 8
  %93 = load i32, ptr %17, align 4
  %94 = sext i32 %93 to i64
  %95 = getelementptr inbounds i32, ptr %92, i64 %94
  %96 = load ptr, ptr %7, align 8
  %97 = load i32, ptr %18, align 4
  %98 = sext i32 %97 to i64
  %99 = getelementptr inbounds i32, ptr %96, i64 %98
  %100 = load i32, ptr %19, align 4
  %101 = sext i32 %100 to i64
  %102 = mul i64 %101, 4
  call void @llvm.memmove.p0.p0.i64(ptr align 4 %95, ptr align 4 %99, i64 %102, i1 false)
  br label %103

103:                                              ; preds = %91, %88
  store i32 0, ptr %20, align 4
  br label %104

104:                                              ; preds = %118, %103
  %105 = load i32, ptr %20, align 4
  %106 = load i32, ptr %17, align 4
  %107 = icmp slt i32 %105, %106
  br i1 %107, label %108, label %121

108:                                              ; preds = %104
  %109 = load ptr, ptr %10, align 8
  %110 = load i32, ptr %20, align 4
  %111 = sext i32 %110 to i64
  %112 = getelementptr inbounds i32, ptr %109, i64 %111
  %113 = load i32, ptr %112, align 4
  %114 = load ptr, ptr %7, align 8
  %115 = load i32, ptr %20, align 4
  %116 = sext i32 %115 to i64
  %117 = getelementptr inbounds i32, ptr %114, i64 %116
  store i32 %113, ptr %117, align 4
  br label %118

118:                                              ; preds = %108
  %119 = load i32, ptr %20, align 4
  %120 = add nsw i32 %119, 1
  store i32 %120, ptr %20, align 4
  br label %104, !llvm.loop !12

121:                                              ; preds = %104
  %122 = load i32, ptr %17, align 4
  %123 = load i32, ptr %19, align 4
  %124 = add nsw i32 %122, %123
  store i32 %124, ptr %6, align 4
  br label %125

125:                                              ; preds = %121, %71, %65
  %126 = load i32, ptr %6, align 4
  ret i32 %126
}