; Function Attrs: mustprogress nofree norecurse nosync nounwind memory(argmem: readwrite) uwtable
define noundef i32 @_Z28dtMergeCorridorStartShortcutPjiiPKji(ptr noundef captures(none) %0, i32 noundef %1, i32 noundef %2, ptr noundef readonly captures(none) %3, i32 noundef %4) local_unnamed_addr #0 {
  %6 = icmp sgt i32 %4, 0
  br i1 %6, label %.split.us.preheader, label %.split63.us.thread

.split.us.preheader:                              ; preds = %5
  %7 = zext nneg i32 %4 to i64
  %8 = zext i32 %1 to i64
  br label %.split.us

.split.us:                                        ; preds = %.split.us.preheader, %._crit_edge.us
  %indvars.iv67 = phi i64 [ %8, %.split.us.preheader ], [ %indvars.iv.next68, %._crit_edge.us ]
  %.050.us = phi i32 [ -1, %.split.us.preheader ], [ %.353.us, %._crit_edge.us ]
  %.045.us = phi i32 [ -1, %.split.us.preheader ], [ %.3.us, %._crit_edge.us ]
  %indvars.iv.next68 = add nsw i64 %indvars.iv67, -1
  %indvars = trunc i64 %indvars.iv.next68 to i32
  %9 = trunc nuw i64 %indvars.iv67 to i32
  %10 = icmp sgt i32 %9, 0
  br i1 %10, label %.preheader.us, label %.split63.us

11:                                               ; preds = %.preheader.us, %11
  %indvars.iv = phi i64 [ %7, %.preheader.us ], [ %indvars.iv.next, %11 ]
  %.259.us = phi i32 [ %.045.us, %.preheader.us ], [ %.3.us, %11 ]
  %.04757.us = phi i1 [ false, %.preheader.us ], [ %.148.us, %11 ]
  %.25256.us = phi i32 [ %.050.us, %.preheader.us ], [ %.353.us, %11 ]
  %indvars.iv.next = add nsw i64 %indvars.iv, -1
  %12 = getelementptr inbounds nuw i32, ptr %3, i64 %indvars.iv.next
  %13 = load i32, ptr %12, align 4
  %14 = icmp eq i32 %19, %13
  %15 = trunc nuw nsw i64 %indvars.iv.next to i32
  %.353.us = select i1 %14, i32 %15, i32 %.25256.us
  %.148.us = select i1 %14, i1 true, i1 %.04757.us
  %.3.us = select i1 %14, i32 %indvars, i32 %.259.us
  %16 = icmp sgt i64 %indvars.iv, 1
  br i1 %16, label %11, label %._crit_edge.us, !llvm.loop !10

.preheader.us:                                    ; preds = %.split.us
  %17 = and i64 %indvars.iv.next68, 4294967295
  %18 = getelementptr inbounds nuw i32, ptr %0, i64 %17
  %19 = load i32, ptr %18, align 4
  br label %11

._crit_edge.us:                                   ; preds = %11
  br i1 %.148.us, label %.split63.us, label %.split.us, !llvm.loop !11

.split63.us:                                      ; preds = %.split.us, %._crit_edge.us
  %.us-phi = phi i32 [ %.050.us, %.split.us ], [ %.353.us, %._crit_edge.us ]
  %.us-phi64 = phi i32 [ %.045.us, %.split.us ], [ %.3.us, %._crit_edge.us ]
  %20 = icmp eq i32 %.us-phi64, -1
  %21 = icmp slt i32 %.us-phi, 1
  %or.cond55 = select i1 %20, i1 true, i1 %21
  br i1 %or.cond55, label %.split63.us.thread, label %22

22:                                               ; preds = %.split63.us
  %23 = sub nsw i32 %1, %.us-phi64
  %24 = tail call noundef i32 @llvm.smax.i32(i32 %23, i32 0)
  %25 = add nuw nsw i32 %24, %.us-phi
  %26 = icmp sgt i32 %25, %2
  %27 = sub nsw i32 %2, %.us-phi
  %spec.select = select i1 %26, i32 %27, i32 %24
  %.not = icmp eq i32 %spec.select, 0
  br i1 %.not, label %.lr.ph.preheader, label %28

28:                                               ; preds = %22
  %29 = zext nneg i32 %.us-phi to i64
  %30 = getelementptr inbounds nuw i32, ptr %0, i64 %29
  %31 = zext nneg i32 %.us-phi64 to i64
  %32 = getelementptr inbounds nuw i32, ptr %0, i64 %31
  %33 = sext i32 %spec.select to i64
  %34 = shl nsw i64 %33, 2
  tail call void @llvm.memmove.p0.p0.i64(ptr nonnull align 4 %30, ptr align 4 %32, i64 %34, i1 false)
  br label %.lr.ph.preheader

.lr.ph.preheader:                                 ; preds = %22, %28
  %wide.trip.count = zext nneg i32 %.us-phi to i64
  br label %.lr.ph

.lr.ph:                                           ; preds = %.lr.ph.preheader, %.lr.ph
  %indvars.iv70 = phi i64 [ 0, %.lr.ph.preheader ], [ %indvars.iv.next71, %.lr.ph ]
  %35 = getelementptr inbounds nuw i32, ptr %3, i64 %indvars.iv70
  %36 = load i32, ptr %35, align 4
  %37 = getelementptr inbounds nuw i32, ptr %0, i64 %indvars.iv70
  store i32 %36, ptr %37, align 4
  %indvars.iv.next71 = add nuw nsw i64 %indvars.iv70, 1
  %exitcond.not = icmp eq i64 %indvars.iv.next71, %wide.trip.count
  br i1 %exitcond.not, label %._crit_edge, label %.lr.ph, !llvm.loop !12

._crit_edge:                                      ; preds = %.lr.ph
  %38 = add nsw i32 %spec.select, %.us-phi
  br label %.split63.us.thread

.split63.us.thread:                               ; preds = %5, %.split63.us, %._crit_edge
  %.044 = phi i32 [ %38, %._crit_edge ], [ %1, %.split63.us ], [ %1, %5 ]
  ret i32 %.044
}